; ModuleID = 'source-C-CXX/16/1336.c'
source_filename = "source-C-CXX/16/1336.c"
target datalayout = "e-m:e-p270:32:32-p271:32:32-p272:64:64-i64:64-f80:128-n8:16:32:64-S128"
target triple = "x86_64-pc-linux-gnu"

@.str = private unnamed_addr constant [3 x i8] c"%d\00", align 1
@.str.1 = private unnamed_addr constant [3 x i8] c"%s\00", align 1

; Function Attrs: nofree nounwind sspstrong uwtable
define dso_local i32 @main() local_unnamed_addr #0 {
  %1 = alloca i32, align 4
  %2 = alloca [1000 x i8], align 16
  %3 = alloca [1000 x i8], align 16
  %4 = bitcast i32* %1 to i8*
  call void @llvm.lifetime.start.p0i8(i64 4, i8* nonnull %4) #6
  %5 = call i32 (i8*, ...) @__isoc99_scanf(i8* getelementptr inbounds ([3 x i8], [3 x i8]* @.str, i64 0, i64 0), i32* nonnull %1)
  %6 = getelementptr inbounds [1000 x i8], [1000 x i8]* %2, i64 0, i64 0
  call void @llvm.lifetime.start.p0i8(i64 1000, i8* nonnull %6) #6
  %7 = getelementptr inbounds [1000 x i8], [1000 x i8]* %3, i64 0, i64 0
  call void @llvm.lifetime.start.p0i8(i64 1000, i8* nonnull %7) #6
  %8 = load i32, i32* %1, align 4, !tbaa !5
  %9 = icmp sgt i32 %8, 0
  br i1 %9, label %10, label %48

10:                                               ; preds = %0, %43
  %11 = phi i32 [ %45, %43 ], [ 0, %0 ]
  call void @llvm.memset.p0i8.i64(i8* noundef nonnull align 16 dereferenceable(200) %6, i8 10, i64 200, i1 false)
  call void @llvm.memset.p0i8.i64(i8* noundef nonnull align 16 dereferenceable(200) %7, i8 10, i64 200, i1 false)
  %12 = call i32 (i8*, ...) @__isoc99_scanf(i8* getelementptr inbounds ([3 x i8], [3 x i8]* @.str.1, i64 0, i64 0), i8* nonnull %6)
  %13 = call i32 @puts(i8* nonnull %6)
  %14 = call i64 @strlen(i8* noundef nonnull %6) #7
  %15 = trunc i64 %14 to i32
  %16 = icmp sgt i32 %15, 0
  br i1 %16, label %17, label %43

17:                                               ; preds = %10
  %18 = and i64 %14, 4294967295
  br label %19

19:                                               ; preds = %17, %40
  %20 = phi i64 [ 0, %17 ], [ %41, %40 ]
  %21 = getelementptr inbounds [1000 x i8], [1000 x i8]* %2, i64 0, i64 %20
  %22 = load i8, i8* %21, align 1, !tbaa !9
  switch i8 %22, label %38 [
    i8 40, label %23
    i8 41, label %25
  ]

23:                                               ; preds = %19
  %24 = getelementptr inbounds [1000 x i8], [1000 x i8]* %3, i64 0, i64 %20
  store i8 36, i8* %24, align 1, !tbaa !9
  br label %40

25:                                               ; preds = %19
  %26 = getelementptr inbounds [1000 x i8], [1000 x i8]* %3, i64 0, i64 %20
  store i8 63, i8* %26, align 1, !tbaa !9
  br label %27

27:                                               ; preds = %31, %25
  %28 = phi i64 [ %29, %31 ], [ %20, %25 ]
  %29 = add nsw i64 %28, -1
  %30 = icmp sgt i64 %28, 0
  br i1 %30, label %31, label %40

31:                                               ; preds = %27
  %32 = getelementptr inbounds [1000 x i8], [1000 x i8]* %3, i64 0, i64 %29
  %33 = load i8, i8* %32, align 1, !tbaa !9
  %34 = icmp eq i8 %33, 36
  br i1 %34, label %35, label %27, !llvm.loop !10

35:                                               ; preds = %31
  %36 = and i64 %29, 4294967295
  %37 = getelementptr inbounds [1000 x i8], [1000 x i8]* %3, i64 0, i64 %36
  store i8 32, i8* %37, align 1, !tbaa !9
  store i8 32, i8* %26, align 1, !tbaa !9
  br label %40

38:                                               ; preds = %19
  %39 = getelementptr inbounds [1000 x i8], [1000 x i8]* %3, i64 0, i64 %20
  store i8 32, i8* %39, align 1, !tbaa !9
  br label %40

40:                                               ; preds = %27, %23, %38, %35
  %41 = add nuw nsw i64 %20, 1
  %42 = icmp eq i64 %41, %18
  br i1 %42, label %43, label %19, !llvm.loop !12

43:                                               ; preds = %40, %10
  %44 = call i32 @puts(i8* nonnull %7)
  %45 = add nuw nsw i32 %11, 1
  %46 = load i32, i32* %1, align 4, !tbaa !5
  %47 = icmp slt i32 %45, %46
  br i1 %47, label %10, label %48, !llvm.loop !13

48:                                               ; preds = %43, %0
  call void @llvm.lifetime.end.p0i8(i64 1000, i8* nonnull %7) #6
  call void @llvm.lifetime.end.p0i8(i64 1000, i8* nonnull %6) #6
  call void @llvm.lifetime.end.p0i8(i64 4, i8* nonnull %4) #6
  ret i32 0
}

; Function Attrs: argmemonly mustprogress nofree nosync nounwind willreturn
declare void @llvm.lifetime.start.p0i8(i64 immarg, i8* nocapture) #1

; Function Attrs: nofree nounwind
declare noundef i32 @__isoc99_scanf(i8* nocapture noundef readonly, ...) local_unnamed_addr #2

; Function Attrs: argmemonly mustprogress nofree nounwind willreturn writeonly
declare void @llvm.memset.p0i8.i64(i8* nocapture writeonly, i8, i64, i1 immarg) #3

; Function Attrs: argmemonly mustprogress nofree nounwind readonly willreturn
declare i64 @strlen(i8* nocapture) local_unnamed_addr #4

; Function Attrs: argmemonly mustprogress nofree nosync nounwind willreturn
declare void @llvm.lifetime.end.p0i8(i64 immarg, i8* nocapture) #1

; Function Attrs: nofree nounwind
declare noundef i32 @puts(i8* nocapture noundef readonly) local_unnamed_addr #5


!llvm.module.flags = !{!0, !1, !2, !3}
!llvm.ident = !{!4}

!0 = !{i32 1, !"wchar_size", i32 4}
!1 = !{i32 7, !"PIC Level", i32 2}
!2 = !{i32 7, !"PIE Level", i32 2}
!3 = !{i32 7, !"uwtable", i32 1}
!4 = !{!"clang version 13.0.0"}
!5 = !{!6, !6, i64 0}
!6 = !{!"int", !7, i64 0}
!7 = !{!"omnipotent char", !8, i64 0}
!8 = !{!"Simple C/C++ TBAA"}
!9 = !{!7, !7, i64 0}
!10 = distinct !{!10, !11}
!11 = !{!"llvm.loop.mustprogress"}
!12 = distinct !{!12, !11}
!13 = distinct !{!13, !11}
